; Function Attrs: nounwind uwtable
define hidden zeroext i1 @SDL_SetScancodeName_REAL(i32 noundef %0, ptr noundef %1) local_unnamed_addr #0 {
  %3 = icmp ugt i32 %0, 511
  br i1 %3, label %4, label %6

4:                                                ; preds = %2
  %5 = tail call zeroext i1 (ptr, ...) @SDL_SetError_REAL(ptr noundef nonnull @.str, ptr noundef nonnull @.str.1) #5
  br label %9

6:                                                ; preds = %2
  %7 = zext nneg i32 %0 to i64
  %8 = getelementptr inbounds nuw [512 x ptr], ptr @SDL_scancode_names, i64 0, i64 %7
  store ptr %1, ptr %8, align 8
  br label %9

9:                                                ; preds = %6, %4
  %.0 = phi i1 [ %5, %4 ], [ true, %6 ]
  ret i1 %.0
}